
Aansturing.elf:     file format elf32-avr

Sections:
Idx Name          Size      VMA       LMA       File off  Algn
  0 .data         00000038  00800100  000008aa  0000093e  2**0
                  CONTENTS, ALLOC, LOAD, DATA
  1 .text         000008aa  00000000  00000000  00000094  2**1
                  CONTENTS, ALLOC, LOAD, READONLY, CODE
  2 .bss          0000004c  00800138  00800138  00000976  2**0
                  ALLOC
  3 .comment      00000030  00000000  00000000  00000976  2**0
                  CONTENTS, READONLY
  4 .note.gnu.avr.deviceinfo 00000040  00000000  00000000  000009a8  2**2
                  CONTENTS, READONLY
  5 .debug_aranges 00000148  00000000  00000000  000009e8  2**0
                  CONTENTS, READONLY, DEBUGGING
  6 .debug_info   00001728  00000000  00000000  00000b30  2**0
                  CONTENTS, READONLY, DEBUGGING
  7 .debug_abbrev 00000911  00000000  00000000  00002258  2**0
                  CONTENTS, READONLY, DEBUGGING
  8 .debug_line   000009c8  00000000  00000000  00002b69  2**0
                  CONTENTS, READONLY, DEBUGGING
  9 .debug_frame  00000398  00000000  00000000  00003534  2**2
                  CONTENTS, READONLY, DEBUGGING
 10 .debug_str    000006b0  00000000  00000000  000038cc  2**0
                  CONTENTS, READONLY, DEBUGGING
 11 .debug_loc    000006e7  00000000  00000000  00003f7c  2**0
                  CONTENTS, READONLY, DEBUGGING
 12 .debug_ranges 00000138  00000000  00000000  00004663  2**0
                  CONTENTS, READONLY, DEBUGGING

Disassembly of section .text:

00000000 <__vectors>:
   0:	0c 94 34 00 	jmp	0x68	; 0x68 <__ctors_end>
   4:	0c 94 51 00 	jmp	0xa2	; 0xa2 <__bad_interrupt>
   8:	0c 94 aa 03 	jmp	0x754	; 0x754 <__vector_2>
   c:	0c 94 51 00 	jmp	0xa2	; 0xa2 <__bad_interrupt>
  10:	0c 94 51 00 	jmp	0xa2	; 0xa2 <__bad_interrupt>
  14:	0c 94 51 00 	jmp	0xa2	; 0xa2 <__bad_interrupt>
  18:	0c 94 51 00 	jmp	0xa2	; 0xa2 <__bad_interrupt>
  1c:	0c 94 93 03 	jmp	0x726	; 0x726 <__vector_7>
  20:	0c 94 51 00 	jmp	0xa2	; 0xa2 <__bad_interrupt>
  24:	0c 94 51 00 	jmp	0xa2	; 0xa2 <__bad_interrupt>
  28:	0c 94 51 00 	jmp	0xa2	; 0xa2 <__bad_interrupt>
  2c:	0c 94 23 01 	jmp	0x246	; 0x246 <__vector_11>
  30:	0c 94 51 00 	jmp	0xa2	; 0xa2 <__bad_interrupt>
  34:	0c 94 51 00 	jmp	0xa2	; 0xa2 <__bad_interrupt>
  38:	0c 94 51 00 	jmp	0xa2	; 0xa2 <__bad_interrupt>
  3c:	0c 94 51 00 	jmp	0xa2	; 0xa2 <__bad_interrupt>
  40:	0c 94 7c 03 	jmp	0x6f8	; 0x6f8 <__vector_16>
  44:	0c 94 51 00 	jmp	0xa2	; 0xa2 <__bad_interrupt>
  48:	0c 94 51 00 	jmp	0xa2	; 0xa2 <__bad_interrupt>
  4c:	0c 94 51 00 	jmp	0xa2	; 0xa2 <__bad_interrupt>
  50:	0c 94 51 00 	jmp	0xa2	; 0xa2 <__bad_interrupt>
  54:	0c 94 51 00 	jmp	0xa2	; 0xa2 <__bad_interrupt>
  58:	0c 94 51 00 	jmp	0xa2	; 0xa2 <__bad_interrupt>
  5c:	0c 94 51 00 	jmp	0xa2	; 0xa2 <__bad_interrupt>
  60:	0c 94 51 00 	jmp	0xa2	; 0xa2 <__bad_interrupt>
  64:	0c 94 51 00 	jmp	0xa2	; 0xa2 <__bad_interrupt>

00000068 <__ctors_end>:
  68:	11 24       	eor	r1, r1
  6a:	1f be       	out	0x3f, r1	; 63
  6c:	cf ef       	ldi	r28, 0xFF	; 255
  6e:	d8 e0       	ldi	r29, 0x08	; 8
  70:	de bf       	out	0x3e, r29	; 62
  72:	cd bf       	out	0x3d, r28	; 61

00000074 <__do_copy_data>:
  74:	11 e0       	ldi	r17, 0x01	; 1
  76:	a0 e0       	ldi	r26, 0x00	; 0
  78:	b1 e0       	ldi	r27, 0x01	; 1
  7a:	ea ea       	ldi	r30, 0xAA	; 170
  7c:	f8 e0       	ldi	r31, 0x08	; 8
  7e:	02 c0       	rjmp	.+4      	; 0x84 <__do_copy_data+0x10>
  80:	05 90       	lpm	r0, Z+
  82:	0d 92       	st	X+, r0
  84:	a8 33       	cpi	r26, 0x38	; 56
  86:	b1 07       	cpc	r27, r17
  88:	d9 f7       	brne	.-10     	; 0x80 <__do_copy_data+0xc>

0000008a <__do_clear_bss>:
  8a:	21 e0       	ldi	r18, 0x01	; 1
  8c:	a8 e3       	ldi	r26, 0x38	; 56
  8e:	b1 e0       	ldi	r27, 0x01	; 1
  90:	01 c0       	rjmp	.+2      	; 0x94 <.do_clear_bss_start>

00000092 <.do_clear_bss_loop>:
  92:	1d 92       	st	X+, r1

00000094 <.do_clear_bss_start>:
  94:	a4 38       	cpi	r26, 0x84	; 132
  96:	b2 07       	cpc	r27, r18
  98:	e1 f7       	brne	.-8      	; 0x92 <.do_clear_bss_loop>
  9a:	0e 94 13 04 	call	0x826	; 0x826 <main>
  9e:	0c 94 53 04 	jmp	0x8a6	; 0x8a6 <_exit>

000000a2 <__bad_interrupt>:
  a2:	0c 94 00 00 	jmp	0	; 0x0 <__vectors>

000000a6 <turn_on_green_led>:
}

void start_timer2(void)
{
	TCNT2 = 0;
	TCCR2B |= (1<<CS22) | (1<<CS20);
  a6:	2c 9a       	sbi	0x05, 4	; 5
  a8:	08 95       	ret

000000aa <turn_off_green_led>:
  aa:	2c 98       	cbi	0x05, 4	; 5
  ac:	08 95       	ret

000000ae <turn_on_red_led>:
  ae:	2b 9a       	sbi	0x05, 3	; 5
  b0:	08 95       	ret

000000b2 <turn_off_red_led>:
  b2:	2b 98       	cbi	0x05, 3	; 5
  b4:	08 95       	ret

000000b6 <turn_on_yellow_led>:
  b6:	2a 9a       	sbi	0x05, 2	; 5
  b8:	08 95       	ret

000000ba <turn_off_yellow_led>:
  ba:	2a 98       	cbi	0x05, 2	; 5
  bc:	08 95       	ret

000000be <start_motor>:
  be:	29 98       	cbi	0x05, 1	; 5
  c0:	28 9a       	sbi	0x05, 0	; 5
  c2:	08 95       	ret

000000c4 <start_motor_reversed>:
  c4:	28 98       	cbi	0x05, 0	; 5
  c6:	29 9a       	sbi	0x05, 1	; 5
  c8:	08 95       	ret

000000ca <stop_motor>:
  ca:	85 b1       	in	r24, 0x05	; 5
  cc:	8c 7f       	andi	r24, 0xFC	; 252
  ce:	85 b9       	out	0x05, r24	; 5
  d0:	08 95       	ret

000000d2 <scheduler_add_task>:
  d2:	0f 93       	push	r16
  d4:	1f 93       	push	r17
  d6:	cf 93       	push	r28
  d8:	df 93       	push	r29
  da:	8c 01       	movw	r16, r24
  dc:	80 91 3e 01 	lds	r24, 0x013E	; 0x80013e <scheduler_tasks>
  e0:	90 91 3f 01 	lds	r25, 0x013F	; 0x80013f <scheduler_tasks+0x1>
  e4:	89 2b       	or	r24, r25
  e6:	81 f0       	breq	.+32     	; 0x108 <scheduler_add_task+0x36>
  e8:	ee e3       	ldi	r30, 0x3E	; 62
  ea:	f1 e0       	ldi	r31, 0x01	; 1
  ec:	21 e0       	ldi	r18, 0x01	; 1
  ee:	30 e0       	ldi	r19, 0x00	; 0
  f0:	82 2f       	mov	r24, r18
  f2:	e9 01       	movw	r28, r18
  f4:	a7 81       	ldd	r26, Z+7	; 0x07
  f6:	b0 85       	ldd	r27, Z+8	; 0x08
  f8:	2f 5f       	subi	r18, 0xFF	; 255
  fa:	3f 4f       	sbci	r19, 0xFF	; 255
  fc:	37 96       	adiw	r30, 0x07	; 7
  fe:	ab 2b       	or	r26, r27
 100:	b9 f7       	brne	.-18     	; 0xf0 <scheduler_add_task+0x1e>
 102:	8a 30       	cpi	r24, 0x0A	; 10
 104:	21 f4       	brne	.+8      	; 0x10e <scheduler_add_task+0x3c>
 106:	15 c0       	rjmp	.+42     	; 0x132 <scheduler_add_task+0x60>
 108:	c0 e0       	ldi	r28, 0x00	; 0
 10a:	d0 e0       	ldi	r29, 0x00	; 0
 10c:	80 e0       	ldi	r24, 0x00	; 0
 10e:	fe 01       	movw	r30, r28
 110:	ee 0f       	add	r30, r30
 112:	ff 1f       	adc	r31, r31
 114:	ee 0f       	add	r30, r30
 116:	ff 1f       	adc	r31, r31
 118:	ee 0f       	add	r30, r30
 11a:	ff 1f       	adc	r31, r31
 11c:	ec 1b       	sub	r30, r28
 11e:	fd 0b       	sbc	r31, r29
 120:	e2 5c       	subi	r30, 0xC2	; 194
 122:	fe 4f       	sbci	r31, 0xFE	; 254
 124:	11 83       	std	Z+1, r17	; 0x01
 126:	00 83       	st	Z, r16
 128:	73 83       	std	Z+3, r23	; 0x03
 12a:	62 83       	std	Z+2, r22	; 0x02
 12c:	55 83       	std	Z+5, r21	; 0x05
 12e:	44 83       	std	Z+4, r20	; 0x04
 130:	16 82       	std	Z+6, r1	; 0x06
 132:	df 91       	pop	r29
 134:	cf 91       	pop	r28
 136:	1f 91       	pop	r17
 138:	0f 91       	pop	r16
 13a:	08 95       	ret

0000013c <scheduler_delete_task>:
 13c:	27 e0       	ldi	r18, 0x07	; 7
 13e:	82 9f       	mul	r24, r18
 140:	c0 01       	movw	r24, r0
 142:	11 24       	eor	r1, r1
 144:	fc 01       	movw	r30, r24
 146:	e2 5c       	subi	r30, 0xC2	; 194
 148:	fe 4f       	sbci	r31, 0xFE	; 254
 14a:	11 82       	std	Z+1, r1	; 0x01
 14c:	10 82       	st	Z, r1
 14e:	13 82       	std	Z+3, r1	; 0x03
 150:	12 82       	std	Z+2, r1	; 0x02
 152:	15 82       	std	Z+5, r1	; 0x05
 154:	14 82       	std	Z+4, r1	; 0x04
 156:	16 82       	std	Z+6, r1	; 0x06
 158:	08 95       	ret

0000015a <scheduler_dispatch_tasks>:
 15a:	ef 92       	push	r14
 15c:	ff 92       	push	r15
 15e:	1f 93       	push	r17
 160:	cf 93       	push	r28
 162:	df 93       	push	r29
 164:	ce e3       	ldi	r28, 0x3E	; 62
 166:	d1 e0       	ldi	r29, 0x01	; 1
 168:	10 e0       	ldi	r17, 0x00	; 0
 16a:	8e 81       	ldd	r24, Y+6	; 0x06
 16c:	88 23       	and	r24, r24
 16e:	79 f0       	breq	.+30     	; 0x18e <scheduler_dispatch_tasks+0x34>
 170:	e8 81       	ld	r30, Y
 172:	f9 81       	ldd	r31, Y+1	; 0x01
 174:	30 97       	sbiw	r30, 0x00	; 0
 176:	59 f0       	breq	.+22     	; 0x18e <scheduler_dispatch_tasks+0x34>
 178:	09 95       	icall
 17a:	8e 81       	ldd	r24, Y+6	; 0x06
 17c:	81 50       	subi	r24, 0x01	; 1
 17e:	8e 83       	std	Y+6, r24	; 0x06
 180:	8c 81       	ldd	r24, Y+4	; 0x04
 182:	9d 81       	ldd	r25, Y+5	; 0x05
 184:	89 2b       	or	r24, r25
 186:	19 f4       	brne	.+6      	; 0x18e <scheduler_dispatch_tasks+0x34>
 188:	81 2f       	mov	r24, r17
 18a:	0e 94 9e 00 	call	0x13c	; 0x13c <scheduler_delete_task>
 18e:	1f 5f       	subi	r17, 0xFF	; 255
 190:	27 96       	adiw	r28, 0x07	; 7
 192:	1a 30       	cpi	r17, 0x0A	; 10
 194:	51 f7       	brne	.-44     	; 0x16a <scheduler_dispatch_tasks+0x10>
 196:	df 91       	pop	r29
 198:	cf 91       	pop	r28
 19a:	1f 91       	pop	r17
 19c:	ff 90       	pop	r15
 19e:	ef 90       	pop	r14
 1a0:	08 95       	ret

000001a2 <scheduler_delete_all_tasks>:
 1a2:	cf 93       	push	r28
 1a4:	c0 e0       	ldi	r28, 0x00	; 0
 1a6:	8c 2f       	mov	r24, r28
 1a8:	0e 94 9e 00 	call	0x13c	; 0x13c <scheduler_delete_task>
 1ac:	cf 5f       	subi	r28, 0xFF	; 255
 1ae:	ca 30       	cpi	r28, 0x0A	; 10
 1b0:	d1 f7       	brne	.-12     	; 0x1a6 <scheduler_delete_all_tasks+0x4>
 1b2:	cf 91       	pop	r28
 1b4:	08 95       	ret

000001b6 <check_if_up>:
 1b6:	20 91 39 01 	lds	r18, 0x0139	; 0x800139 <distance>
 1ba:	30 91 3a 01 	lds	r19, 0x013A	; 0x80013a <distance+0x1>
 1be:	80 91 00 01 	lds	r24, 0x0100	; 0x800100 <MIN_UITROL>
 1c2:	90 91 01 01 	lds	r25, 0x0101	; 0x800101 <MIN_UITROL+0x1>
 1c6:	28 17       	cp	r18, r24
 1c8:	39 07       	cpc	r19, r25
 1ca:	30 f1       	brcs	.+76     	; 0x218 <check_if_up+0x62>
 1cc:	05 96       	adiw	r24, 0x05	; 5
 1ce:	28 17       	cp	r18, r24
 1d0:	39 07       	cpc	r19, r25
 1d2:	10 f5       	brcc	.+68     	; 0x218 <check_if_up+0x62>
 1d4:	0e 94 d1 00 	call	0x1a2	; 0x1a2 <scheduler_delete_all_tasks>
 1d8:	40 e0       	ldi	r20, 0x00	; 0
 1da:	50 e0       	ldi	r21, 0x00	; 0
 1dc:	60 e0       	ldi	r22, 0x00	; 0
 1de:	70 e0       	ldi	r23, 0x00	; 0
 1e0:	8d e5       	ldi	r24, 0x5D	; 93
 1e2:	90 e0       	ldi	r25, 0x00	; 0
 1e4:	0e 94 69 00 	call	0xd2	; 0xd2 <scheduler_add_task>
 1e8:	40 e0       	ldi	r20, 0x00	; 0
 1ea:	50 e0       	ldi	r21, 0x00	; 0
 1ec:	60 e0       	ldi	r22, 0x00	; 0
 1ee:	70 e0       	ldi	r23, 0x00	; 0
 1f0:	85 e6       	ldi	r24, 0x65	; 101
 1f2:	90 e0       	ldi	r25, 0x00	; 0
 1f4:	0e 94 69 00 	call	0xd2	; 0xd2 <scheduler_add_task>
 1f8:	44 e1       	ldi	r20, 0x14	; 20
 1fa:	50 e0       	ldi	r21, 0x00	; 0
 1fc:	60 e0       	ldi	r22, 0x00	; 0
 1fe:	70 e0       	ldi	r23, 0x00	; 0
 200:	86 e0       	ldi	r24, 0x06	; 6
 202:	94 e0       	ldi	r25, 0x04	; 4
 204:	0e 94 69 00 	call	0xd2	; 0xd2 <scheduler_add_task>
 208:	44 e1       	ldi	r20, 0x14	; 20
 20a:	50 e0       	ldi	r21, 0x00	; 0
 20c:	6a e0       	ldi	r22, 0x0A	; 10
 20e:	70 e0       	ldi	r23, 0x00	; 0
 210:	8c e6       	ldi	r24, 0x6C	; 108
 212:	92 e0       	ldi	r25, 0x02	; 2
 214:	0e 94 69 00 	call	0xd2	; 0xd2 <scheduler_add_task>
 218:	08 95       	ret

0000021a <scheduler_init_timer1>:
 21a:	cf 93       	push	r28
 21c:	c0 e0       	ldi	r28, 0x00	; 0
 21e:	8c 2f       	mov	r24, r28
 220:	0e 94 9e 00 	call	0x13c	; 0x13c <scheduler_delete_task>
 224:	cf 5f       	subi	r28, 0xFF	; 255
 226:	ca 30       	cpi	r28, 0x0A	; 10
 228:	d1 f7       	brne	.-12     	; 0x21e <scheduler_init_timer1+0x4>
 22a:	81 e7       	ldi	r24, 0x71	; 113
 22c:	92 e0       	ldi	r25, 0x02	; 2
 22e:	90 93 89 00 	sts	0x0089, r25	; 0x800089 <__TEXT_REGION_LENGTH__+0x7e0089>
 232:	80 93 88 00 	sts	0x0088, r24	; 0x800088 <__TEXT_REGION_LENGTH__+0x7e0088>
 236:	8c e0       	ldi	r24, 0x0C	; 12
 238:	80 93 81 00 	sts	0x0081, r24	; 0x800081 <__TEXT_REGION_LENGTH__+0x7e0081>
 23c:	82 e0       	ldi	r24, 0x02	; 2
 23e:	80 93 6f 00 	sts	0x006F, r24	; 0x80006f <__TEXT_REGION_LENGTH__+0x7e006f>
 242:	cf 91       	pop	r28
 244:	08 95       	ret

00000246 <__vector_11>:
 246:	1f 92       	push	r1
 248:	0f 92       	push	r0
 24a:	0f b6       	in	r0, 0x3f	; 63
 24c:	0f 92       	push	r0
 24e:	11 24       	eor	r1, r1
 250:	2f 93       	push	r18
 252:	3f 93       	push	r19
 254:	8f 93       	push	r24
 256:	9f 93       	push	r25
 258:	af 93       	push	r26
 25a:	bf 93       	push	r27
 25c:	ef 93       	push	r30
 25e:	ff 93       	push	r31
 260:	ee e3       	ldi	r30, 0x3E	; 62
 262:	f1 e0       	ldi	r31, 0x01	; 1
 264:	24 e8       	ldi	r18, 0x84	; 132
 266:	31 e0       	ldi	r19, 0x01	; 1
 268:	80 81       	ld	r24, Z
 26a:	91 81       	ldd	r25, Z+1	; 0x01
 26c:	89 2b       	or	r24, r25
 26e:	91 f0       	breq	.+36     	; 0x294 <__vector_11+0x4e>
 270:	82 81       	ldd	r24, Z+2	; 0x02
 272:	93 81       	ldd	r25, Z+3	; 0x03
 274:	00 97       	sbiw	r24, 0x00	; 0
 276:	59 f4       	brne	.+22     	; 0x28e <__vector_11+0x48>
 278:	86 81       	ldd	r24, Z+6	; 0x06
 27a:	8f 5f       	subi	r24, 0xFF	; 255
 27c:	86 83       	std	Z+6, r24	; 0x06
 27e:	84 81       	ldd	r24, Z+4	; 0x04
 280:	95 81       	ldd	r25, Z+5	; 0x05
 282:	00 97       	sbiw	r24, 0x00	; 0
 284:	39 f0       	breq	.+14     	; 0x294 <__vector_11+0x4e>
 286:	01 97       	sbiw	r24, 0x01	; 1
 288:	93 83       	std	Z+3, r25	; 0x03
 28a:	82 83       	std	Z+2, r24	; 0x02
 28c:	03 c0       	rjmp	.+6      	; 0x294 <__vector_11+0x4e>
 28e:	01 97       	sbiw	r24, 0x01	; 1
 290:	93 83       	std	Z+3, r25	; 0x03
 292:	82 83       	std	Z+2, r24	; 0x02
 294:	37 96       	adiw	r30, 0x07	; 7
 296:	e2 17       	cp	r30, r18
 298:	f3 07       	cpc	r31, r19
 29a:	31 f7       	brne	.-52     	; 0x268 <__vector_11+0x22>
 29c:	ff 91       	pop	r31
 29e:	ef 91       	pop	r30
 2a0:	bf 91       	pop	r27
 2a2:	af 91       	pop	r26
 2a4:	9f 91       	pop	r25
 2a6:	8f 91       	pop	r24
 2a8:	3f 91       	pop	r19
 2aa:	2f 91       	pop	r18
 2ac:	0f 90       	pop	r0
 2ae:	0f be       	out	0x3f, r0	; 63
 2b0:	0f 90       	pop	r0
 2b2:	1f 90       	pop	r1
 2b4:	18 95       	reti

000002b6 <init_ports>:
 2b6:	84 b1       	in	r24, 0x04	; 4
 2b8:	8c 61       	ori	r24, 0x1C	; 28
 2ba:	84 b9       	out	0x04, r24	; 4
 2bc:	84 b1       	in	r24, 0x04	; 4
 2be:	83 60       	ori	r24, 0x03	; 3
 2c0:	84 b9       	out	0x04, r24	; 4
 2c2:	54 9a       	sbi	0x0a, 4	; 10
 2c4:	53 98       	cbi	0x0a, 3	; 10
 2c6:	08 95       	ret

000002c8 <init_ext_int1>:
 2c8:	84 e0       	ldi	r24, 0x04	; 4
 2ca:	80 93 69 00 	sts	0x0069, r24	; 0x800069 <__TEXT_REGION_LENGTH__+0x7e0069>
 2ce:	82 e0       	ldi	r24, 0x02	; 2
 2d0:	8d bb       	out	0x1d, r24	; 29
 2d2:	08 95       	ret

000002d4 <init_timer0>:
 2d4:	14 bc       	out	0x24, r1	; 36
 2d6:	15 bc       	out	0x25, r1	; 37
 2d8:	81 e0       	ldi	r24, 0x01	; 1
 2da:	80 93 6e 00 	sts	0x006E, r24	; 0x80006e <__TEXT_REGION_LENGTH__+0x7e006e>
 2de:	08 95       	ret

000002e0 <init_timer2>:
 2e0:	e0 eb       	ldi	r30, 0xB0	; 176
 2e2:	f0 e0       	ldi	r31, 0x00	; 0
 2e4:	80 81       	ld	r24, Z
 2e6:	82 60       	ori	r24, 0x02	; 2
 2e8:	80 83       	st	Z, r24
 2ea:	e1 eb       	ldi	r30, 0xB1	; 177
 2ec:	f0 e0       	ldi	r31, 0x00	; 0
 2ee:	80 81       	ld	r24, Z
 2f0:	87 60       	ori	r24, 0x07	; 7
 2f2:	80 83       	st	Z, r24
 2f4:	8f ef       	ldi	r24, 0xFF	; 255
 2f6:	80 93 b3 00 	sts	0x00B3, r24	; 0x8000b3 <__TEXT_REGION_LENGTH__+0x7e00b3>
 2fa:	e0 e7       	ldi	r30, 0x70	; 112
 2fc:	f0 e0       	ldi	r31, 0x00	; 0
 2fe:	80 81       	ld	r24, Z
 300:	82 60       	ori	r24, 0x02	; 2
 302:	80 83       	st	Z, r24
 304:	08 95       	ret

00000306 <init_uart>:
 306:	10 92 c5 00 	sts	0x00C5, r1	; 0x8000c5 <__TEXT_REGION_LENGTH__+0x7e00c5>
 30a:	83 e3       	ldi	r24, 0x33	; 51
 30c:	80 93 c4 00 	sts	0x00C4, r24	; 0x8000c4 <__TEXT_REGION_LENGTH__+0x7e00c4>
 310:	10 92 c0 00 	sts	0x00C0, r1	; 0x8000c0 <__TEXT_REGION_LENGTH__+0x7e00c0>
 314:	88 e1       	ldi	r24, 0x18	; 24
 316:	80 93 c1 00 	sts	0x00C1, r24	; 0x8000c1 <__TEXT_REGION_LENGTH__+0x7e00c1>
 31a:	86 e0       	ldi	r24, 0x06	; 6
 31c:	80 93 c2 00 	sts	0x00C2, r24	; 0x8000c2 <__TEXT_REGION_LENGTH__+0x7e00c2>
 320:	08 95       	ret

00000322 <transmit>:
 322:	e0 ec       	ldi	r30, 0xC0	; 192
 324:	f0 e0       	ldi	r31, 0x00	; 0
 326:	90 81       	ld	r25, Z
 328:	95 ff       	sbrs	r25, 5
 32a:	fd cf       	rjmp	.-6      	; 0x326 <transmit+0x4>
 32c:	80 93 c6 00 	sts	0x00C6, r24	; 0x8000c6 <__TEXT_REGION_LENGTH__+0x7e00c6>
 330:	08 95       	ret

00000332 <check_if_down>:
 332:	8f e0       	ldi	r24, 0x0F	; 15
 334:	0e 94 91 01 	call	0x322	; 0x322 <transmit>
 338:	20 91 39 01 	lds	r18, 0x0139	; 0x800139 <distance>
 33c:	30 91 3a 01 	lds	r19, 0x013A	; 0x80013a <distance+0x1>
 340:	80 91 02 01 	lds	r24, 0x0102	; 0x800102 <MAX_UITROL>
 344:	90 91 03 01 	lds	r25, 0x0103	; 0x800103 <MAX_UITROL+0x1>
 348:	82 17       	cp	r24, r18
 34a:	93 07       	cpc	r25, r19
 34c:	30 f1       	brcs	.+76     	; 0x39a <check_if_down+0x68>
 34e:	05 97       	sbiw	r24, 0x05	; 5
 350:	82 17       	cp	r24, r18
 352:	93 07       	cpc	r25, r19
 354:	10 f5       	brcc	.+68     	; 0x39a <check_if_down+0x68>
 356:	0e 94 d1 00 	call	0x1a2	; 0x1a2 <scheduler_delete_all_tasks>
 35a:	40 e0       	ldi	r20, 0x00	; 0
 35c:	50 e0       	ldi	r21, 0x00	; 0
 35e:	60 e0       	ldi	r22, 0x00	; 0
 360:	70 e0       	ldi	r23, 0x00	; 0
 362:	8d e5       	ldi	r24, 0x5D	; 93
 364:	90 e0       	ldi	r25, 0x00	; 0
 366:	0e 94 69 00 	call	0xd2	; 0xd2 <scheduler_add_task>
 36a:	40 e0       	ldi	r20, 0x00	; 0
 36c:	50 e0       	ldi	r21, 0x00	; 0
 36e:	60 e0       	ldi	r22, 0x00	; 0
 370:	70 e0       	ldi	r23, 0x00	; 0
 372:	85 e6       	ldi	r24, 0x65	; 101
 374:	90 e0       	ldi	r25, 0x00	; 0
 376:	0e 94 69 00 	call	0xd2	; 0xd2 <scheduler_add_task>
 37a:	44 e1       	ldi	r20, 0x14	; 20
 37c:	50 e0       	ldi	r21, 0x00	; 0
 37e:	60 e0       	ldi	r22, 0x00	; 0
 380:	70 e0       	ldi	r23, 0x00	; 0
 382:	86 e0       	ldi	r24, 0x06	; 6
 384:	94 e0       	ldi	r25, 0x04	; 4
 386:	0e 94 69 00 	call	0xd2	; 0xd2 <scheduler_add_task>
 38a:	44 e1       	ldi	r20, 0x14	; 20
 38c:	50 e0       	ldi	r21, 0x00	; 0
 38e:	6a e0       	ldi	r22, 0x0A	; 10
 390:	70 e0       	ldi	r23, 0x00	; 0
 392:	8c e6       	ldi	r24, 0x6C	; 108
 394:	92 e0       	ldi	r25, 0x02	; 2
 396:	0e 94 69 00 	call	0xd2	; 0xd2 <scheduler_add_task>
 39a:	08 95       	ret

0000039c <transmit_string>:
 39c:	1f 93       	push	r17
 39e:	cf 93       	push	r28
 3a0:	df 93       	push	r29
 3a2:	ec 01       	movw	r28, r24
 3a4:	10 e0       	ldi	r17, 0x00	; 0
 3a6:	07 c0       	rjmp	.+14     	; 0x3b6 <transmit_string+0x1a>
 3a8:	fe 01       	movw	r30, r28
 3aa:	e8 0f       	add	r30, r24
 3ac:	f9 1f       	adc	r31, r25
 3ae:	80 81       	ld	r24, Z
 3b0:	0e 94 91 01 	call	0x322	; 0x322 <transmit>
 3b4:	1f 5f       	subi	r17, 0xFF	; 255
 3b6:	81 2f       	mov	r24, r17
 3b8:	90 e0       	ldi	r25, 0x00	; 0
 3ba:	fe 01       	movw	r30, r28
 3bc:	01 90       	ld	r0, Z+
 3be:	00 20       	and	r0, r0
 3c0:	e9 f7       	brne	.-6      	; 0x3bc <transmit_string+0x20>
 3c2:	31 97       	sbiw	r30, 0x01	; 1
 3c4:	ec 1b       	sub	r30, r28
 3c6:	fd 0b       	sbc	r31, r29
 3c8:	8e 17       	cp	r24, r30
 3ca:	9f 07       	cpc	r25, r31
 3cc:	68 f3       	brcs	.-38     	; 0x3a8 <transmit_string+0xc>
 3ce:	df 91       	pop	r29
 3d0:	cf 91       	pop	r28
 3d2:	1f 91       	pop	r17
 3d4:	08 95       	ret

000003d6 <receive>:
 3d6:	90 e0       	ldi	r25, 0x00	; 0
 3d8:	e0 ec       	ldi	r30, 0xC0	; 192
 3da:	f0 e0       	ldi	r31, 0x00	; 0
 3dc:	09 c0       	rjmp	.+18     	; 0x3f0 <receive+0x1a>
 3de:	80 91 38 01 	lds	r24, 0x0138	; 0x800138 <__data_end>
 3e2:	88 23       	and	r24, r24
 3e4:	19 f0       	breq	.+6      	; 0x3ec <receive+0x16>
 3e6:	10 92 38 01 	sts	0x0138, r1	; 0x800138 <__data_end>
 3ea:	9f 5f       	subi	r25, 0xFF	; 255
 3ec:	9a 30       	cpi	r25, 0x0A	; 10
 3ee:	30 f4       	brcc	.+12     	; 0x3fc <receive+0x26>
 3f0:	80 81       	ld	r24, Z
 3f2:	88 23       	and	r24, r24
 3f4:	a4 f7       	brge	.-24     	; 0x3de <receive+0x8>
 3f6:	80 91 c6 00 	lds	r24, 0x00C6	; 0x8000c6 <__TEXT_REGION_LENGTH__+0x7e00c6>
 3fa:	08 95       	ret
 3fc:	8a e0       	ldi	r24, 0x0A	; 10
 3fe:	08 95       	ret

00000400 <receive_string>:
 400:	0f 93       	push	r16
 402:	1f 93       	push	r17
 404:	cf 93       	push	r28
 406:	df 93       	push	r29
 408:	8c 01       	movw	r16, r24
 40a:	fc 01       	movw	r30, r24
 40c:	10 82       	st	Z, r1
 40e:	0e 94 eb 01 	call	0x3d6	; 0x3d6 <receive>
 412:	c8 2f       	mov	r28, r24
 414:	8a 30       	cpi	r24, 0x0A	; 10
 416:	69 f0       	breq	.+26     	; 0x432 <receive_string+0x32>
 418:	d0 e0       	ldi	r29, 0x00	; 0
 41a:	f8 01       	movw	r30, r16
 41c:	ed 0f       	add	r30, r29
 41e:	f1 1d       	adc	r31, r1
 420:	c0 83       	st	Z, r28
 422:	df 5f       	subi	r29, 0xFF	; 255
 424:	0e 94 eb 01 	call	0x3d6	; 0x3d6 <receive>
 428:	c8 2f       	mov	r28, r24
 42a:	0e 94 91 01 	call	0x322	; 0x322 <transmit>
 42e:	ca 30       	cpi	r28, 0x0A	; 10
 430:	a1 f7       	brne	.-24     	; 0x41a <receive_string+0x1a>
 432:	df 91       	pop	r29
 434:	cf 91       	pop	r28
 436:	1f 91       	pop	r17
 438:	0f 91       	pop	r16
 43a:	08 95       	ret

0000043c <init_connection>:
 43c:	cf 93       	push	r28
 43e:	df 93       	push	r29
 440:	cd b7       	in	r28, 0x3d	; 61
 442:	de b7       	in	r29, 0x3e	; 62
 444:	a0 97       	sbiw	r28, 0x20	; 32
 446:	0f b6       	in	r0, 0x3f	; 63
 448:	f8 94       	cli
 44a:	de bf       	out	0x3e, r29	; 62
 44c:	0f be       	out	0x3f, r0	; 63
 44e:	cd bf       	out	0x3d, r28	; 61
 450:	86 e0       	ldi	r24, 0x06	; 6
 452:	e4 e0       	ldi	r30, 0x04	; 4
 454:	f1 e0       	ldi	r31, 0x01	; 1
 456:	de 01       	movw	r26, r28
 458:	11 96       	adiw	r26, 0x01	; 1
 45a:	01 90       	ld	r0, Z+
 45c:	0d 92       	st	X+, r0
 45e:	8a 95       	dec	r24
 460:	e1 f7       	brne	.-8      	; 0x45a <init_connection+0x1e>
 462:	fe 01       	movw	r30, r28
 464:	37 96       	adiw	r30, 0x07	; 7
 466:	8a e0       	ldi	r24, 0x0A	; 10
 468:	df 01       	movw	r26, r30
 46a:	1d 92       	st	X+, r1
 46c:	8a 95       	dec	r24
 46e:	e9 f7       	brne	.-6      	; 0x46a <init_connection+0x2e>
 470:	ce 01       	movw	r24, r28
 472:	01 96       	adiw	r24, 0x01	; 1
 474:	0e 94 ce 01 	call	0x39c	; 0x39c <transmit_string>
 478:	1a 8a       	std	Y+18, r1	; 0x12
 47a:	19 8a       	std	Y+17, r1	; 0x11
 47c:	fe 01       	movw	r30, r28
 47e:	73 96       	adiw	r30, 0x13	; 19
 480:	8e e0       	ldi	r24, 0x0E	; 14
 482:	df 01       	movw	r26, r30
 484:	1d 92       	st	X+, r1
 486:	8a 95       	dec	r24
 488:	e9 f7       	brne	.-6      	; 0x484 <init_connection+0x48>
 48a:	ce 01       	movw	r24, r28
 48c:	41 96       	adiw	r24, 0x11	; 17
 48e:	0e 94 00 02 	call	0x400	; 0x400 <receive_string>
 492:	6c e1       	ldi	r22, 0x1C	; 28
 494:	71 e0       	ldi	r23, 0x01	; 1
 496:	ce 01       	movw	r24, r28
 498:	41 96       	adiw	r24, 0x11	; 17
 49a:	0e 94 4a 04 	call	0x894	; 0x894 <strcmp>
 49e:	89 2b       	or	r24, r25
 4a0:	91 f4       	brne	.+36     	; 0x4c6 <init_connection+0x8a>
 4a2:	0e 94 d1 00 	call	0x1a2	; 0x1a2 <scheduler_delete_all_tasks>
 4a6:	44 e1       	ldi	r20, 0x14	; 20
 4a8:	50 e0       	ldi	r21, 0x00	; 0
 4aa:	60 e0       	ldi	r22, 0x00	; 0
 4ac:	70 e0       	ldi	r23, 0x00	; 0
 4ae:	86 e0       	ldi	r24, 0x06	; 6
 4b0:	94 e0       	ldi	r25, 0x04	; 4
 4b2:	0e 94 69 00 	call	0xd2	; 0xd2 <scheduler_add_task>
 4b6:	44 e1       	ldi	r20, 0x14	; 20
 4b8:	50 e0       	ldi	r21, 0x00	; 0
 4ba:	6a e0       	ldi	r22, 0x0A	; 10
 4bc:	70 e0       	ldi	r23, 0x00	; 0
 4be:	8c e6       	ldi	r24, 0x6C	; 108
 4c0:	92 e0       	ldi	r25, 0x02	; 2
 4c2:	0e 94 69 00 	call	0xd2	; 0xd2 <scheduler_add_task>
 4c6:	a0 96       	adiw	r28, 0x20	; 32
 4c8:	0f b6       	in	r0, 0x3f	; 63
 4ca:	f8 94       	cli
 4cc:	de bf       	out	0x3e, r29	; 62
 4ce:	0f be       	out	0x3f, r0	; 63
 4d0:	cd bf       	out	0x3d, r28	; 61
 4d2:	df 91       	pop	r29
 4d4:	cf 91       	pop	r28
 4d6:	08 95       	ret

000004d8 <wait_for_task>:
 4d8:	cf 93       	push	r28
 4da:	df 93       	push	r29
 4dc:	cd b7       	in	r28, 0x3d	; 61
 4de:	de b7       	in	r29, 0x3e	; 62
 4e0:	68 97       	sbiw	r28, 0x18	; 24
 4e2:	0f b6       	in	r0, 0x3f	; 63
 4e4:	f8 94       	cli
 4e6:	de bf       	out	0x3e, r29	; 62
 4e8:	0f be       	out	0x3f, r0	; 63
 4ea:	cd bf       	out	0x3d, r28	; 61
 4ec:	1a 82       	std	Y+2, r1	; 0x02
 4ee:	19 82       	std	Y+1, r1	; 0x01
 4f0:	fe 01       	movw	r30, r28
 4f2:	33 96       	adiw	r30, 0x03	; 3
 4f4:	8e e0       	ldi	r24, 0x0E	; 14
 4f6:	df 01       	movw	r26, r30
 4f8:	1d 92       	st	X+, r1
 4fa:	8a 95       	dec	r24
 4fc:	e9 f7       	brne	.-6      	; 0x4f8 <wait_for_task+0x20>
 4fe:	ce 01       	movw	r24, r28
 500:	01 96       	adiw	r24, 0x01	; 1
 502:	0e 94 00 02 	call	0x400	; 0x400 <receive_string>
 506:	62 e2       	ldi	r22, 0x22	; 34
 508:	71 e0       	ldi	r23, 0x01	; 1
 50a:	ce 01       	movw	r24, r28
 50c:	01 96       	adiw	r24, 0x01	; 1
 50e:	0e 94 4a 04 	call	0x894	; 0x894 <strcmp>
 512:	89 2b       	or	r24, r25
 514:	59 f4       	brne	.+22     	; 0x52c <wait_for_task+0x54>
 516:	0e 94 d1 00 	call	0x1a2	; 0x1a2 <scheduler_delete_all_tasks>
 51a:	4a e0       	ldi	r20, 0x0A	; 10
 51c:	50 e0       	ldi	r21, 0x00	; 0
 51e:	60 e0       	ldi	r22, 0x00	; 0
 520:	70 e0       	ldi	r23, 0x00	; 0
 522:	8e e1       	ldi	r24, 0x1E	; 30
 524:	92 e0       	ldi	r25, 0x02	; 2
 526:	0e 94 69 00 	call	0xd2	; 0xd2 <scheduler_add_task>
 52a:	dd c0       	rjmp	.+442    	; 0x6e6 <wait_for_task+0x20e>
 52c:	68 e2       	ldi	r22, 0x28	; 40
 52e:	71 e0       	ldi	r23, 0x01	; 1
 530:	ce 01       	movw	r24, r28
 532:	01 96       	adiw	r24, 0x01	; 1
 534:	0e 94 4a 04 	call	0x894	; 0x894 <strcmp>
 538:	89 2b       	or	r24, r25
 53a:	09 f0       	breq	.+2      	; 0x53e <wait_for_task+0x66>
 53c:	43 c0       	rjmp	.+134    	; 0x5c4 <wait_for_task+0xec>
 53e:	0e 94 d1 00 	call	0x1a2	; 0x1a2 <scheduler_delete_all_tasks>
 542:	44 e6       	ldi	r20, 0x64	; 100
 544:	50 e0       	ldi	r21, 0x00	; 0
 546:	60 e0       	ldi	r22, 0x00	; 0
 548:	70 e0       	ldi	r23, 0x00	; 0
 54a:	85 e5       	ldi	r24, 0x55	; 85
 54c:	90 e0       	ldi	r25, 0x00	; 0
 54e:	0e 94 69 00 	call	0xd2	; 0xd2 <scheduler_add_task>
 552:	44 e6       	ldi	r20, 0x64	; 100
 554:	50 e0       	ldi	r21, 0x00	; 0
 556:	60 e0       	ldi	r22, 0x00	; 0
 558:	70 e0       	ldi	r23, 0x00	; 0
 55a:	87 e5       	ldi	r24, 0x57	; 87
 55c:	90 e0       	ldi	r25, 0x00	; 0
 55e:	0e 94 69 00 	call	0xd2	; 0xd2 <scheduler_add_task>
 562:	42 e3       	ldi	r20, 0x32	; 50
 564:	50 e0       	ldi	r21, 0x00	; 0
 566:	60 e0       	ldi	r22, 0x00	; 0
 568:	70 e0       	ldi	r23, 0x00	; 0
 56a:	8b e5       	ldi	r24, 0x5B	; 91
 56c:	90 e0       	ldi	r25, 0x00	; 0
 56e:	0e 94 69 00 	call	0xd2	; 0xd2 <scheduler_add_task>
 572:	42 e3       	ldi	r20, 0x32	; 50
 574:	50 e0       	ldi	r21, 0x00	; 0
 576:	69 e1       	ldi	r22, 0x19	; 25
 578:	70 e0       	ldi	r23, 0x00	; 0
 57a:	8d e5       	ldi	r24, 0x5D	; 93
 57c:	90 e0       	ldi	r25, 0x00	; 0
 57e:	0e 94 69 00 	call	0xd2	; 0xd2 <scheduler_add_task>
 582:	40 e0       	ldi	r20, 0x00	; 0
 584:	50 e0       	ldi	r21, 0x00	; 0
 586:	60 e0       	ldi	r22, 0x00	; 0
 588:	70 e0       	ldi	r23, 0x00	; 0
 58a:	82 e6       	ldi	r24, 0x62	; 98
 58c:	90 e0       	ldi	r25, 0x00	; 0
 58e:	0e 94 69 00 	call	0xd2	; 0xd2 <scheduler_add_task>
 592:	4e e1       	ldi	r20, 0x1E	; 30
 594:	50 e0       	ldi	r21, 0x00	; 0
 596:	60 e0       	ldi	r22, 0x00	; 0
 598:	70 e0       	ldi	r23, 0x00	; 0
 59a:	86 e0       	ldi	r24, 0x06	; 6
 59c:	94 e0       	ldi	r25, 0x04	; 4
 59e:	0e 94 69 00 	call	0xd2	; 0xd2 <scheduler_add_task>
 5a2:	4e e1       	ldi	r20, 0x1E	; 30
 5a4:	50 e0       	ldi	r21, 0x00	; 0
 5a6:	6a e0       	ldi	r22, 0x0A	; 10
 5a8:	70 e0       	ldi	r23, 0x00	; 0
 5aa:	89 e9       	ldi	r24, 0x99	; 153
 5ac:	91 e0       	ldi	r25, 0x01	; 1
 5ae:	0e 94 69 00 	call	0xd2	; 0xd2 <scheduler_add_task>
 5b2:	4e e1       	ldi	r20, 0x1E	; 30
 5b4:	50 e0       	ldi	r21, 0x00	; 0
 5b6:	64 e1       	ldi	r22, 0x14	; 20
 5b8:	70 e0       	ldi	r23, 0x00	; 0
 5ba:	8c e6       	ldi	r24, 0x6C	; 108
 5bc:	92 e0       	ldi	r25, 0x02	; 2
 5be:	0e 94 69 00 	call	0xd2	; 0xd2 <scheduler_add_task>
 5c2:	91 c0       	rjmp	.+290    	; 0x6e6 <wait_for_task+0x20e>
 5c4:	6d e2       	ldi	r22, 0x2D	; 45
 5c6:	71 e0       	ldi	r23, 0x01	; 1
 5c8:	ce 01       	movw	r24, r28
 5ca:	01 96       	adiw	r24, 0x01	; 1
 5cc:	0e 94 4a 04 	call	0x894	; 0x894 <strcmp>
 5d0:	89 2b       	or	r24, r25
 5d2:	09 f0       	breq	.+2      	; 0x5d6 <wait_for_task+0xfe>
 5d4:	43 c0       	rjmp	.+134    	; 0x65c <wait_for_task+0x184>
 5d6:	0e 94 d1 00 	call	0x1a2	; 0x1a2 <scheduler_delete_all_tasks>
 5da:	44 e6       	ldi	r20, 0x64	; 100
 5dc:	50 e0       	ldi	r21, 0x00	; 0
 5de:	60 e0       	ldi	r22, 0x00	; 0
 5e0:	70 e0       	ldi	r23, 0x00	; 0
 5e2:	89 e5       	ldi	r24, 0x59	; 89
 5e4:	90 e0       	ldi	r25, 0x00	; 0
 5e6:	0e 94 69 00 	call	0xd2	; 0xd2 <scheduler_add_task>
 5ea:	44 e6       	ldi	r20, 0x64	; 100
 5ec:	50 e0       	ldi	r21, 0x00	; 0
 5ee:	60 e0       	ldi	r22, 0x00	; 0
 5f0:	70 e0       	ldi	r23, 0x00	; 0
 5f2:	83 e5       	ldi	r24, 0x53	; 83
 5f4:	90 e0       	ldi	r25, 0x00	; 0
 5f6:	0e 94 69 00 	call	0xd2	; 0xd2 <scheduler_add_task>
 5fa:	42 e3       	ldi	r20, 0x32	; 50
 5fc:	50 e0       	ldi	r21, 0x00	; 0
 5fe:	60 e0       	ldi	r22, 0x00	; 0
 600:	70 e0       	ldi	r23, 0x00	; 0
 602:	8b e5       	ldi	r24, 0x5B	; 91
 604:	90 e0       	ldi	r25, 0x00	; 0
 606:	0e 94 69 00 	call	0xd2	; 0xd2 <scheduler_add_task>
 60a:	42 e3       	ldi	r20, 0x32	; 50
 60c:	50 e0       	ldi	r21, 0x00	; 0
 60e:	69 e1       	ldi	r22, 0x19	; 25
 610:	70 e0       	ldi	r23, 0x00	; 0
 612:	8d e5       	ldi	r24, 0x5D	; 93
 614:	90 e0       	ldi	r25, 0x00	; 0
 616:	0e 94 69 00 	call	0xd2	; 0xd2 <scheduler_add_task>
 61a:	40 e0       	ldi	r20, 0x00	; 0
 61c:	50 e0       	ldi	r21, 0x00	; 0
 61e:	60 e0       	ldi	r22, 0x00	; 0
 620:	70 e0       	ldi	r23, 0x00	; 0
 622:	8f e5       	ldi	r24, 0x5F	; 95
 624:	90 e0       	ldi	r25, 0x00	; 0
 626:	0e 94 69 00 	call	0xd2	; 0xd2 <scheduler_add_task>
 62a:	4e e1       	ldi	r20, 0x1E	; 30
 62c:	50 e0       	ldi	r21, 0x00	; 0
 62e:	60 e0       	ldi	r22, 0x00	; 0
 630:	70 e0       	ldi	r23, 0x00	; 0
 632:	86 e0       	ldi	r24, 0x06	; 6
 634:	94 e0       	ldi	r25, 0x04	; 4
 636:	0e 94 69 00 	call	0xd2	; 0xd2 <scheduler_add_task>
 63a:	4e e1       	ldi	r20, 0x1E	; 30
 63c:	50 e0       	ldi	r21, 0x00	; 0
 63e:	6a e0       	ldi	r22, 0x0A	; 10
 640:	70 e0       	ldi	r23, 0x00	; 0
 642:	8b ed       	ldi	r24, 0xDB	; 219
 644:	90 e0       	ldi	r25, 0x00	; 0
 646:	0e 94 69 00 	call	0xd2	; 0xd2 <scheduler_add_task>
 64a:	4e e1       	ldi	r20, 0x1E	; 30
 64c:	50 e0       	ldi	r21, 0x00	; 0
 64e:	64 e1       	ldi	r22, 0x14	; 20
 650:	70 e0       	ldi	r23, 0x00	; 0
 652:	8c e6       	ldi	r24, 0x6C	; 108
 654:	92 e0       	ldi	r25, 0x02	; 2
 656:	0e 94 69 00 	call	0xd2	; 0xd2 <scheduler_add_task>
 65a:	45 c0       	rjmp	.+138    	; 0x6e6 <wait_for_task+0x20e>
 65c:	61 e3       	ldi	r22, 0x31	; 49
 65e:	71 e0       	ldi	r23, 0x01	; 1
 660:	ce 01       	movw	r24, r28
 662:	01 96       	adiw	r24, 0x01	; 1
 664:	0e 94 4a 04 	call	0x894	; 0x894 <strcmp>
 668:	89 2b       	or	r24, r25
 66a:	59 f5       	brne	.+86     	; 0x6c2 <wait_for_task+0x1ea>
 66c:	0e 94 d1 00 	call	0x1a2	; 0x1a2 <scheduler_delete_all_tasks>
 670:	40 e0       	ldi	r20, 0x00	; 0
 672:	50 e0       	ldi	r21, 0x00	; 0
 674:	60 e0       	ldi	r22, 0x00	; 0
 676:	70 e0       	ldi	r23, 0x00	; 0
 678:	8b e5       	ldi	r24, 0x5B	; 91
 67a:	90 e0       	ldi	r25, 0x00	; 0
 67c:	0e 94 69 00 	call	0xd2	; 0xd2 <scheduler_add_task>
 680:	40 e0       	ldi	r20, 0x00	; 0
 682:	50 e0       	ldi	r21, 0x00	; 0
 684:	60 e0       	ldi	r22, 0x00	; 0
 686:	70 e0       	ldi	r23, 0x00	; 0
 688:	85 e5       	ldi	r24, 0x55	; 85
 68a:	90 e0       	ldi	r25, 0x00	; 0
 68c:	0e 94 69 00 	call	0xd2	; 0xd2 <scheduler_add_task>
 690:	40 e0       	ldi	r20, 0x00	; 0
 692:	50 e0       	ldi	r21, 0x00	; 0
 694:	60 e0       	ldi	r22, 0x00	; 0
 696:	70 e0       	ldi	r23, 0x00	; 0
 698:	89 e5       	ldi	r24, 0x59	; 89
 69a:	90 e0       	ldi	r25, 0x00	; 0
 69c:	0e 94 69 00 	call	0xd2	; 0xd2 <scheduler_add_task>
 6a0:	44 e1       	ldi	r20, 0x14	; 20
 6a2:	50 e0       	ldi	r21, 0x00	; 0
 6a4:	60 e0       	ldi	r22, 0x00	; 0
 6a6:	70 e0       	ldi	r23, 0x00	; 0
 6a8:	86 e0       	ldi	r24, 0x06	; 6
 6aa:	94 e0       	ldi	r25, 0x04	; 4
 6ac:	0e 94 69 00 	call	0xd2	; 0xd2 <scheduler_add_task>
 6b0:	44 e1       	ldi	r20, 0x14	; 20
 6b2:	50 e0       	ldi	r21, 0x00	; 0
 6b4:	6a e0       	ldi	r22, 0x0A	; 10
 6b6:	70 e0       	ldi	r23, 0x00	; 0
 6b8:	8c e6       	ldi	r24, 0x6C	; 108
 6ba:	92 e0       	ldi	r25, 0x02	; 2
 6bc:	0e 94 69 00 	call	0xd2	; 0xd2 <scheduler_add_task>
 6c0:	12 c0       	rjmp	.+36     	; 0x6e6 <wait_for_task+0x20e>
 6c2:	89 81       	ldd	r24, Y+1	; 0x01
 6c4:	88 23       	and	r24, r24
 6c6:	79 f0       	breq	.+30     	; 0x6e6 <wait_for_task+0x20e>
 6c8:	86 e0       	ldi	r24, 0x06	; 6
 6ca:	e4 e1       	ldi	r30, 0x14	; 20
 6cc:	f1 e0       	ldi	r31, 0x01	; 1
 6ce:	de 01       	movw	r26, r28
 6d0:	51 96       	adiw	r26, 0x11	; 17
 6d2:	01 90       	ld	r0, Z+
 6d4:	0d 92       	st	X+, r0
 6d6:	8a 95       	dec	r24
 6d8:	e1 f7       	brne	.-8      	; 0x6d2 <wait_for_task+0x1fa>
 6da:	18 8e       	std	Y+24, r1	; 0x18
 6dc:	1f 8a       	std	Y+23, r1	; 0x17
 6de:	ce 01       	movw	r24, r28
 6e0:	41 96       	adiw	r24, 0x11	; 17
 6e2:	0e 94 ce 01 	call	0x39c	; 0x39c <transmit_string>
 6e6:	68 96       	adiw	r28, 0x18	; 24
 6e8:	0f b6       	in	r0, 0x3f	; 63
 6ea:	f8 94       	cli
 6ec:	de bf       	out	0x3e, r29	; 62
 6ee:	0f be       	out	0x3f, r0	; 63
 6f0:	cd bf       	out	0x3d, r28	; 61
 6f2:	df 91       	pop	r29
 6f4:	cf 91       	pop	r28
 6f6:	08 95       	ret

000006f8 <__vector_16>:
 6f8:	1f 92       	push	r1
 6fa:	0f 92       	push	r0
 6fc:	0f b6       	in	r0, 0x3f	; 63
 6fe:	0f 92       	push	r0
 700:	11 24       	eor	r1, r1
 702:	8f 93       	push	r24
 704:	9f 93       	push	r25
 706:	80 91 3c 01 	lds	r24, 0x013C	; 0x80013c <counter>
 70a:	90 91 3d 01 	lds	r25, 0x013D	; 0x80013d <counter+0x1>
 70e:	01 96       	adiw	r24, 0x01	; 1
 710:	90 93 3d 01 	sts	0x013D, r25	; 0x80013d <counter+0x1>
 714:	80 93 3c 01 	sts	0x013C, r24	; 0x80013c <counter>
 718:	9f 91       	pop	r25
 71a:	8f 91       	pop	r24
 71c:	0f 90       	pop	r0
 71e:	0f be       	out	0x3f, r0	; 63
 720:	0f 90       	pop	r0
 722:	1f 90       	pop	r1
 724:	18 95       	reti

00000726 <__vector_7>:
 726:	1f 92       	push	r1
 728:	0f 92       	push	r0
 72a:	0f b6       	in	r0, 0x3f	; 63
 72c:	0f 92       	push	r0
 72e:	11 24       	eor	r1, r1
 730:	8f 93       	push	r24
 732:	81 e0       	ldi	r24, 0x01	; 1
 734:	80 93 38 01 	sts	0x0138, r24	; 0x800138 <__data_end>
 738:	8f 91       	pop	r24
 73a:	0f 90       	pop	r0
 73c:	0f be       	out	0x3f, r0	; 63
 73e:	0f 90       	pop	r0
 740:	1f 90       	pop	r1
 742:	18 95       	reti

00000744 <start_timer0>:
 744:	16 bc       	out	0x26, r1	; 38
 746:	10 92 3d 01 	sts	0x013D, r1	; 0x80013d <counter+0x1>
 74a:	10 92 3c 01 	sts	0x013C, r1	; 0x80013c <counter>
 74e:	83 e0       	ldi	r24, 0x03	; 3
 750:	85 bd       	out	0x25, r24	; 37
 752:	08 95       	ret

00000754 <__vector_2>:
 754:	1f 92       	push	r1
 756:	0f 92       	push	r0
 758:	0f b6       	in	r0, 0x3f	; 63
 75a:	0f 92       	push	r0
 75c:	11 24       	eor	r1, r1
 75e:	2f 93       	push	r18
 760:	3f 93       	push	r19
 762:	4f 93       	push	r20
 764:	5f 93       	push	r21
 766:	6f 93       	push	r22
 768:	7f 93       	push	r23
 76a:	8f 93       	push	r24
 76c:	9f 93       	push	r25
 76e:	af 93       	push	r26
 770:	bf 93       	push	r27
 772:	ef 93       	push	r30
 774:	ff 93       	push	r31
 776:	80 91 3b 01 	lds	r24, 0x013B	; 0x80013b <echo>
 77a:	91 e0       	ldi	r25, 0x01	; 1
 77c:	28 2f       	mov	r18, r24
 77e:	21 70       	andi	r18, 0x01	; 1
 780:	80 fd       	sbrc	r24, 0
 782:	90 e0       	ldi	r25, 0x00	; 0
 784:	90 93 3b 01 	sts	0x013B, r25	; 0x80013b <echo>
 788:	21 11       	cpse	r18, r1
 78a:	03 c0       	rjmp	.+6      	; 0x792 <__vector_2+0x3e>
 78c:	0e 94 a2 03 	call	0x744	; 0x744 <start_timer0>
 790:	02 c0       	rjmp	.+4      	; 0x796 <__vector_2+0x42>
 792:	0e 94 6a 01 	call	0x2d4	; 0x2d4 <init_timer0>
 796:	ff 91       	pop	r31
 798:	ef 91       	pop	r30
 79a:	bf 91       	pop	r27
 79c:	af 91       	pop	r26
 79e:	9f 91       	pop	r25
 7a0:	8f 91       	pop	r24
 7a2:	7f 91       	pop	r23
 7a4:	6f 91       	pop	r22
 7a6:	5f 91       	pop	r21
 7a8:	4f 91       	pop	r20
 7aa:	3f 91       	pop	r19
 7ac:	2f 91       	pop	r18
 7ae:	0f 90       	pop	r0
 7b0:	0f be       	out	0x3f, r0	; 63
 7b2:	0f 90       	pop	r0
 7b4:	1f 90       	pop	r1
 7b6:	18 95       	reti

000007b8 <send_trigger>:
	#else
		//round up by default
		__ticks_dc = (uint32_t)(ceil(fabs(__tmp)));
	#endif

	__builtin_avr_delay_cycles(__ticks_dc);
 7b8:	2f ef       	ldi	r18, 0xFF	; 255
 7ba:	80 e7       	ldi	r24, 0x70	; 112
 7bc:	92 e0       	ldi	r25, 0x02	; 2
 7be:	21 50       	subi	r18, 0x01	; 1
 7c0:	80 40       	sbci	r24, 0x00	; 0
 7c2:	90 40       	sbci	r25, 0x00	; 0
 7c4:	e1 f7       	brne	.-8      	; 0x7be <send_trigger+0x6>
 7c6:	00 c0       	rjmp	.+0      	; 0x7c8 <send_trigger+0x10>
 7c8:	00 00       	nop
}

void send_trigger(void)
{
	_delay_ms(50);		//Restart HC-SR04
	PORTD &=~ (1 << PIND4);
 7ca:	5c 98       	cbi	0x0b, 4	; 11
	#else
		//round up by default
		__ticks_dc = (uint32_t)(ceil(fabs(__tmp)));
	#endif

	__builtin_avr_delay_cycles(__ticks_dc);
 7cc:	25 e0       	ldi	r18, 0x05	; 5
 7ce:	2a 95       	dec	r18
 7d0:	f1 f7       	brne	.-4      	; 0x7ce <send_trigger+0x16>
 7d2:	00 00       	nop
	_delay_us(1);
	PORTD |= (1 << PIND4); //Send 10us second pulse
 7d4:	5c 9a       	sbi	0x0b, 4	; 11
 7d6:	85 e3       	ldi	r24, 0x35	; 53
 7d8:	8a 95       	dec	r24
 7da:	f1 f7       	brne	.-4      	; 0x7d8 <send_trigger+0x20>
 7dc:	00 00       	nop
	_delay_us(10);
	PORTD &=~ (1 << PIND4);
 7de:	5c 98       	cbi	0x0b, 4	; 11
 7e0:	08 95       	ret

000007e2 <calc_cm>:
}

uint16_t calc_cm(uint16_t counter)
{
    uint16_t result = (counter * 256 + TCNT0) * 4 / 58;
 7e2:	96 b5       	in	r25, 0x26	; 38
	return result;
 7e4:	20 e0       	ldi	r18, 0x00	; 0
 7e6:	30 e0       	ldi	r19, 0x00	; 0
 7e8:	38 2f       	mov	r19, r24
 7ea:	29 0f       	add	r18, r25
 7ec:	31 1d       	adc	r19, r1
 7ee:	22 0f       	add	r18, r18
 7f0:	33 1f       	adc	r19, r19
 7f2:	22 0f       	add	r18, r18
 7f4:	33 1f       	adc	r19, r19
 7f6:	af e9       	ldi	r26, 0x9F	; 159
 7f8:	b6 e4       	ldi	r27, 0x46	; 70
 7fa:	0e 94 3b 04 	call	0x876	; 0x876 <__umulhisi3>
}
 7fe:	92 95       	swap	r25
 800:	82 95       	swap	r24
 802:	8f 70       	andi	r24, 0x0F	; 15
 804:	89 27       	eor	r24, r25
 806:	9f 70       	andi	r25, 0x0F	; 15
 808:	89 27       	eor	r24, r25
 80a:	08 95       	ret

0000080c <refresh_distance>:

void refresh_distance(void)
{
	send_trigger();
 80c:	0e 94 dc 03 	call	0x7b8	; 0x7b8 <send_trigger>
	distance = calc_cm(counter);
 810:	80 91 3c 01 	lds	r24, 0x013C	; 0x80013c <counter>
 814:	90 91 3d 01 	lds	r25, 0x013D	; 0x80013d <counter+0x1>
 818:	0e 94 f1 03 	call	0x7e2	; 0x7e2 <calc_cm>
 81c:	90 93 3a 01 	sts	0x013A, r25	; 0x80013a <distance+0x1>
 820:	80 93 39 01 	sts	0x0139, r24	; 0x800139 <distance>
 824:	08 95       	ret

00000826 <main>:
}

int main()
{ 
	//init
    init_ports();
 826:	0e 94 5b 01 	call	0x2b6	; 0x2b6 <init_ports>
    init_uart();
 82a:	0e 94 83 01 	call	0x306	; 0x306 <init_uart>
    init_ext_int1();
 82e:	0e 94 64 01 	call	0x2c8	; 0x2c8 <init_ext_int1>
    init_timer0();
 832:	0e 94 6a 01 	call	0x2d4	; 0x2d4 <init_timer0>
	init_timer2();
 836:	0e 94 70 01 	call	0x2e0	; 0x2e0 <init_timer2>
	scheduler_init_timer1();
 83a:	0e 94 0d 01 	call	0x21a	; 0x21a <scheduler_init_timer1>
    // tasks
	scheduler_add_task(turn_on_yellow_led, 0, 0);
 83e:	40 e0       	ldi	r20, 0x00	; 0
 840:	50 e0       	ldi	r21, 0x00	; 0
 842:	60 e0       	ldi	r22, 0x00	; 0
 844:	70 e0       	ldi	r23, 0x00	; 0
 846:	8b e5       	ldi	r24, 0x5B	; 91
 848:	90 e0       	ldi	r25, 0x00	; 0
 84a:	0e 94 69 00 	call	0xd2	; 0xd2 <scheduler_add_task>
	scheduler_add_task(refresh_distance, 0, 20);
 84e:	44 e1       	ldi	r20, 0x14	; 20
 850:	50 e0       	ldi	r21, 0x00	; 0
 852:	60 e0       	ldi	r22, 0x00	; 0
 854:	70 e0       	ldi	r23, 0x00	; 0
 856:	86 e0       	ldi	r24, 0x06	; 6
 858:	94 e0       	ldi	r25, 0x04	; 4
 85a:	0e 94 69 00 	call	0xd2	; 0xd2 <scheduler_add_task>
	scheduler_add_task(wait_for_task, 10, 20);
 85e:	44 e1       	ldi	r20, 0x14	; 20
 860:	50 e0       	ldi	r21, 0x00	; 0
 862:	6a e0       	ldi	r22, 0x0A	; 10
 864:	70 e0       	ldi	r23, 0x00	; 0
 866:	8c e6       	ldi	r24, 0x6C	; 108
 868:	92 e0       	ldi	r25, 0x02	; 2
 86a:	0e 94 69 00 	call	0xd2	; 0xd2 <scheduler_add_task>

*/

void scheduler_start(void)
{
      sei();
 86e:	78 94       	sei
	scheduler_add_task(refresh_distance, 0, 20);
	scheduler_add_task(wait_for_task, 10, 20);
    // start de scheduler
	scheduler_start();
	while (1) {
		scheduler_dispatch_tasks();
 870:	0e 94 ad 00 	call	0x15a	; 0x15a <scheduler_dispatch_tasks>
 874:	fd cf       	rjmp	.-6      	; 0x870 <main+0x4a>

00000876 <__umulhisi3>:
 876:	a2 9f       	mul	r26, r18
 878:	b0 01       	movw	r22, r0
 87a:	b3 9f       	mul	r27, r19
 87c:	c0 01       	movw	r24, r0
 87e:	a3 9f       	mul	r26, r19
 880:	70 0d       	add	r23, r0
 882:	81 1d       	adc	r24, r1
 884:	11 24       	eor	r1, r1
 886:	91 1d       	adc	r25, r1
 888:	b2 9f       	mul	r27, r18
 88a:	70 0d       	add	r23, r0
 88c:	81 1d       	adc	r24, r1
 88e:	11 24       	eor	r1, r1
 890:	91 1d       	adc	r25, r1
 892:	08 95       	ret

00000894 <strcmp>:
 894:	fb 01       	movw	r30, r22
 896:	dc 01       	movw	r26, r24
 898:	8d 91       	ld	r24, X+
 89a:	01 90       	ld	r0, Z+
 89c:	80 19       	sub	r24, r0
 89e:	01 10       	cpse	r0, r1
 8a0:	d9 f3       	breq	.-10     	; 0x898 <strcmp+0x4>
 8a2:	99 0b       	sbc	r25, r25
 8a4:	08 95       	ret

000008a6 <_exit>:
 8a6:	f8 94       	cli

000008a8 <__stop_program>:
 8a8:	ff cf       	rjmp	.-2      	; 0x8a8 <__stop_program>
